target datalayout = "e-m:e-p270:32:32-p271:32:32-p272:64:64-i64:64-i128:128-f80:128-n8:16:32:64-S128"
target triple = "x86_64-pc-linux-gnu"

%"class.llvm::SmallVectorBase" = type { ptr, i32, i32 }
%"class.llvm::PMTopLevelManager" = type { ptr, %"class.llvm::PMStack", %"class.llvm::SmallVector.140", %"class.llvm::SmallVector.140", %"class.llvm::DenseMap.145", %"class.llvm::DenseMap.148", %"class.llvm::SmallVector.151", %"class.llvm::SmallDenseMap", %"class.llvm::FoldingSet", %"class.llvm::SpecificBumpPtrAllocator", %"class.llvm::DenseMap.168", %"class.llvm::DenseMap.171" }
%"class.llvm::PMStack" = type { %"class.std::vector" }
%"class.std::vector" = type { %"struct.std::_Vector_base" }
%"struct.std::_Vector_base" = type { %"struct.std::_Vector_base<llvm::PMDataManager *, std::allocator<llvm::PMDataManager *>>::_Vector_impl" }
%"struct.std::_Vector_base<llvm::PMDataManager *, std::allocator<llvm::PMDataManager *>>::_Vector_impl" = type { %"struct.std::_Vector_base<llvm::PMDataManager *, std::allocator<llvm::PMDataManager *>>::_Vector_impl_data" }
%"struct.std::_Vector_base<llvm::PMDataManager *, std::allocator<llvm::PMDataManager *>>::_Vector_impl_data" = type { ptr, ptr, ptr }
%"class.llvm::SmallVector.140" = type { %"class.llvm::SmallVectorImpl.141", %"struct.llvm::SmallVectorStorage.144" }
%"class.llvm::SmallVectorImpl.141" = type { %"class.llvm::SmallVectorTemplateBase.142" }
%"class.llvm::SmallVectorTemplateBase.142" = type { %"class.llvm::SmallVectorTemplateCommon.143" }
%"class.llvm::SmallVectorTemplateCommon.143" = type { %"class.llvm::SmallVectorBase" }
%"struct.llvm::SmallVectorStorage.144" = type { [64 x i8] }
%"class.llvm::DenseMap.145" = type <{ ptr, i32, i32, i32, [4 x i8] }>
%"class.llvm::DenseMap.148" = type <{ ptr, i32, i32, i32, [4 x i8] }>
%"class.llvm::SmallVector.151" = type { %"class.llvm::SmallVectorImpl.152", %"struct.llvm::SmallVectorStorage.155" }
%"class.llvm::SmallVectorImpl.152" = type { %"class.llvm::SmallVectorTemplateBase.153" }
%"class.llvm::SmallVectorTemplateBase.153" = type { %"class.llvm::SmallVectorTemplateCommon.154" }
%"class.llvm::SmallVectorTemplateCommon.154" = type { %"class.llvm::SmallVectorBase" }
%"struct.llvm::SmallVectorStorage.155" = type { [128 x i8] }
%"class.llvm::SmallDenseMap" = type { i32, i32, %"struct.llvm::AlignedCharArrayUnion" }
%"struct.llvm::AlignedCharArrayUnion" = type { [128 x i8] }
%"class.llvm::FoldingSet" = type { %"class.llvm::FoldingSetImpl" }
%"class.llvm::FoldingSetImpl" = type { %"class.llvm::FoldingSetBase" }
%"class.llvm::FoldingSetBase" = type { ptr, i32, i32 }
%"class.llvm::SpecificBumpPtrAllocator" = type { %"class.llvm::BumpPtrAllocatorImpl" }
%"class.llvm::BumpPtrAllocatorImpl" = type { ptr, ptr, %"class.llvm::SmallVector.158", %"class.llvm::SmallVector.163", i64, i64 }
%"class.llvm::SmallVector.158" = type { %"class.llvm::SmallVectorImpl.159", %"struct.llvm::SmallVectorStorage.162" }
%"class.llvm::SmallVectorImpl.159" = type { %"class.llvm::SmallVectorTemplateBase.160" }
%"class.llvm::SmallVectorTemplateBase.160" = type { %"class.llvm::SmallVectorTemplateCommon.161" }
%"class.llvm::SmallVectorTemplateCommon.161" = type { %"class.llvm::SmallVectorBase" }
%"struct.llvm::SmallVectorStorage.162" = type { [32 x i8] }
%"class.llvm::SmallVector.163" = type { %"class.llvm::SmallVectorImpl.164" }
%"class.llvm::SmallVectorImpl.164" = type { %"class.llvm::SmallVectorTemplateBase.165" }
%"class.llvm::SmallVectorTemplateBase.165" = type { %"class.llvm::SmallVectorTemplateCommon.166" }
%"class.llvm::SmallVectorTemplateCommon.166" = type { %"class.llvm::SmallVectorBase" }
%"class.llvm::DenseMap.168" = type <{ ptr, i32, i32, i32, [4 x i8] }>
%"class.llvm::DenseMap.171" = type <{ ptr, i32, i32, i32, [4 x i8] }>
%"class.llvm::legacy::FunctionPassManagerImpl" = type <{ %"class.llvm::Pass.base", [4 x i8], %"class.llvm::PMDataManager.base", [4 x i8], %"class.llvm::PMTopLevelManager", i8, [7 x i8] }>
%"class.llvm::Pass.base" = type <{ ptr, ptr, ptr, i32 }>
%"class.llvm::PMDataManager.base" = type <{ ptr, ptr, %"class.llvm::SmallVector.129", [6 x ptr], %"class.llvm::DenseMap.134", %"class.llvm::SmallVector.129", i32 }>
%"class.llvm::DenseMap.134" = type <{ ptr, i32, i32, i32, [4 x i8] }>
%"class.llvm::SmallVector.129" = type { %"class.llvm::SmallVectorImpl.130", %"struct.llvm::SmallVectorStorage.133" }
%"class.llvm::SmallVectorImpl.130" = type { %"class.llvm::SmallVectorTemplateBase.131" }
%"class.llvm::SmallVectorTemplateBase.131" = type { %"class.llvm::SmallVectorTemplateCommon.132" }
%"class.llvm::SmallVectorTemplateCommon.132" = type { %"class.llvm::SmallVectorBase" }
%"struct.llvm::SmallVectorStorage.133" = type { [128 x i8] }
%"class.llvm::PMDataManager" = type <{ ptr, ptr, %"class.llvm::SmallVector.129", [6 x ptr], %"class.llvm::DenseMap.134", %"class.llvm::SmallVector.129", i32, [4 x i8] }>
%"class.llvm::Pass" = type <{ ptr, ptr, ptr, i32, [4 x i8] }>
%"class.llvm::AnalysisResolver" = type { %"class.std::vector.194", ptr }
%"class.std::vector.194" = type { %"struct.std::_Vector_base.195" }
%"struct.std::_Vector_base.195" = type { %"struct.std::_Vector_base<std::pair<const void *, llvm::Pass *>, std::allocator<std::pair<const void *, llvm::Pass *>>>::_Vector_impl" }
%"struct.std::_Vector_base<std::pair<const void *, llvm::Pass *>, std::allocator<std::pair<const void *, llvm::Pass *>>>::_Vector_impl" = type { %"struct.std::_Vector_base<std::pair<const void *, llvm::Pass *>, std::allocator<std::pair<const void *, llvm::Pass *>>>::_Vector_impl_data" }
%"struct.std::_Vector_base<std::pair<const void *, llvm::Pass *>, std::allocator<std::pair<const void *, llvm::Pass *>>>::_Vector_impl_data" = type { ptr, ptr, ptr }

; Function Attrs: mustprogress nounwind uwtable
define linkonce_odr hidden void @_ZNSt12_Destroy_auxILb1EE9__destroyIPSt4pairIPKvPN4llvm4PassEEEEvT_SA_(ptr noundef %0, ptr noundef %1) #1 comdat align 2 {
  %3 = alloca ptr, align 8
  %4 = alloca ptr, align 8
  store ptr %0, ptr %3, align 8
  store ptr %1, ptr %4, align 8
  ret void
}

; Function Attrs: mustprogress nounwind uwtable
define linkonce_odr void @_ZSt8_DestroyIPSt4pairIPKvPN4llvm4PassEEEvT_S8_(ptr noundef %0, ptr noundef %1) #1 comdat {
  %3 = alloca ptr, align 8
  %4 = alloca ptr, align 8
  store ptr %0, ptr %3, align 8
  store ptr %1, ptr %4, align 8
  %5 = load ptr, ptr %3, align 8
  %6 = load ptr, ptr %4, align 8
  call void @_ZNSt12_Destroy_auxILb1EE9__destroyIPSt4pairIPKvPN4llvm4PassEEEEvT_SA_(ptr noundef %5, ptr noundef %6)
  ret void
}

; Function Attrs: mustprogress nounwind uwtable
define linkonce_odr void @_ZSt8_DestroyIPSt4pairIPKvPN4llvm4PassEES6_EvT_S8_RSaIT0_E(ptr noundef %0, ptr noundef %1, ptr noundef nonnull align 1 dereferenceable(1) %2) #1 comdat {
  %4 = alloca ptr, align 8
  %5 = alloca ptr, align 8
  %6 = alloca ptr, align 8
  store ptr %0, ptr %4, align 8
  store ptr %1, ptr %5, align 8
  store ptr %2, ptr %6, align 8
  %7 = load ptr, ptr %4, align 8
  %8 = load ptr, ptr %5, align 8
  call void @_ZSt8_DestroyIPSt4pairIPKvPN4llvm4PassEEEvT_S8_(ptr noundef %7, ptr noundef %8)
  ret void
}

; Function Attrs: mustprogress nounwind uwtable
define linkonce_odr hidden noundef nonnull align 1 dereferenceable(1) ptr @_ZNSt12_Vector_baseISt4pairIPKvPN4llvm4PassEESaIS6_EE19_M_get_Tp_allocatorEv(ptr noundef nonnull align 8 dereferenceable(24) %0) #1 comdat align 2 {
  %2 = alloca ptr, align 8
  store ptr %0, ptr %2, align 8
  %3 = load ptr, ptr %2, align 8
  %4 = getelementptr inbounds nuw %"struct.std::_Vector_base.195", ptr %3, i32 0, i32 0
  ret ptr %4
}

; Function Attrs: mustprogress nounwind uwtable
define linkonce_odr hidden void @_ZNSt6vectorISt4pairIPKvPN4llvm4PassEESaIS6_EE15_M_erase_at_endEPS6_(ptr noundef nonnull align 8 dereferenceable(24) %0, ptr noundef %1) #1 comdat align 2 {
  %3 = alloca ptr, align 8
  %4 = alloca ptr, align 8
  %5 = alloca i64, align 8
  store ptr %0, ptr %3, align 8
  store ptr %1, ptr %4, align 8
  %6 = load ptr, ptr %3, align 8
  %7 = getelementptr inbounds nuw %"struct.std::_Vector_base.195", ptr %6, i32 0, i32 0
  %8 = getelementptr inbounds nuw %"struct.std::_Vector_base<std::pair<const void *, llvm::Pass *>, std::allocator<std::pair<const void *, llvm::Pass *>>>::_Vector_impl_data", ptr %7, i32 0, i32 1
  %9 = load ptr, ptr %8, align 8
  %10 = load ptr, ptr %4, align 8
  %11 = ptrtoint ptr %9 to i64
  %12 = ptrtoint ptr %10 to i64
  %13 = sub i64 %11, %12
  %14 = sdiv exact i64 %13, 16
  store i64 %14, ptr %5, align 8
  %15 = load i64, ptr %5, align 8
  %16 = icmp ne i64 %15, 0
  br i1 %16, label %17, label %26

17:                                               ; preds = %2
  %18 = load ptr, ptr %4, align 8
  %19 = getelementptr inbounds nuw %"struct.std::_Vector_base.195", ptr %6, i32 0, i32 0
  %20 = getelementptr inbounds nuw %"struct.std::_Vector_base<std::pair<const void *, llvm::Pass *>, std::allocator<std::pair<const void *, llvm::Pass *>>>::_Vector_impl_data", ptr %19, i32 0, i32 1
  %21 = load ptr, ptr %20, align 8
  %22 = call noundef nonnull align 1 dereferenceable(1) ptr @_ZNSt12_Vector_baseISt4pairIPKvPN4llvm4PassEESaIS6_EE19_M_get_Tp_allocatorEv(ptr noundef nonnull align 8 dereferenceable(24) %6) #2
  call void @_ZSt8_DestroyIPSt4pairIPKvPN4llvm4PassEES6_EvT_S8_RSaIT0_E(ptr noundef %18, ptr noundef %21, ptr noundef nonnull align 1 dereferenceable(1) %22)
  %23 = load ptr, ptr %4, align 8
  %24 = getelementptr inbounds nuw %"struct.std::_Vector_base.195", ptr %6, i32 0, i32 0
  %25 = getelementptr inbounds nuw %"struct.std::_Vector_base<std::pair<const void *, llvm::Pass *>, std::allocator<std::pair<const void *, llvm::Pass *>>>::_Vector_impl_data", ptr %24, i32 0, i32 1
  store ptr %23, ptr %25, align 8
  br label %26

26:                                               ; preds = %17, %2
  ret void
}

; Function Attrs: mustprogress nounwind uwtable
define linkonce_odr hidden noundef ptr @_ZN4llvm25SmallVectorTemplateCommonIPNS_4PassEvE5beginEv(ptr noundef nonnull align 8 dereferenceable(16) %0) #1 comdat align 2 {
  %2 = alloca ptr, align 8
  store ptr %0, ptr %2, align 8
  %3 = load ptr, ptr %2, align 8
  %4 = getelementptr inbounds nuw %"class.llvm::SmallVectorBase", ptr %3, i32 0, i32 0
  %5 = load ptr, ptr %4, align 8
  ret ptr %5
}

; Function Attrs: mustprogress nounwind uwtable
define linkonce_odr hidden void @_ZNSt6vectorISt4pairIPKvPN4llvm4PassEESaIS6_EE5clearEv(ptr noundef nonnull align 8 dereferenceable(24) %0) #1 comdat align 2 {
  %2 = alloca ptr, align 8
  store ptr %0, ptr %2, align 8
  %3 = load ptr, ptr %2, align 8
  %4 = getelementptr inbounds nuw %"struct.std::_Vector_base.195", ptr %3, i32 0, i32 0
  %5 = getelementptr inbounds nuw %"struct.std::_Vector_base<std::pair<const void *, llvm::Pass *>, std::allocator<std::pair<const void *, llvm::Pass *>>>::_Vector_impl_data", ptr %4, i32 0, i32 0
  %6 = load ptr, ptr %5, align 8
  call void @_ZNSt6vectorISt4pairIPKvPN4llvm4PassEESaIS6_EE15_M_erase_at_endEPS6_(ptr noundef nonnull align 8 dereferenceable(24) %3, ptr noundef %6) #2
  ret void
}

; Function Attrs: mustprogress nounwind uwtable
define linkonce_odr hidden noundef nonnull align 8 dereferenceable(8) ptr @_ZN4llvm25SmallVectorTemplateCommonIPNS_4PassEvEixEm(ptr noundef nonnull align 8 dereferenceable(16) %0, i64 noundef %1) #1 comdat align 2 {
  %3 = alloca ptr, align 8
  %4 = alloca i64, align 8
  store ptr %0, ptr %3, align 8
  store i64 %1, ptr %4, align 8
  %5 = load ptr, ptr %3, align 8
  %6 = call noundef ptr @_ZN4llvm25SmallVectorTemplateCommonIPNS_4PassEvE5beginEv(ptr noundef nonnull align 8 dereferenceable(16) %5)
  %7 = load i64, ptr %4, align 8
  %8 = getelementptr inbounds ptr, ptr %6, i64 %7
  ret ptr %8
}

; Function Attrs: mustprogress nounwind uwtable
define linkonce_odr hidden noundef ptr @_ZN4llvm25SmallVectorTemplateCommonIPNS_13PMDataManagerEvE5beginEv(ptr noundef nonnull align 8 dereferenceable(16) %0) #1 comdat align 2 {
  %2 = alloca ptr, align 8
  store ptr %0, ptr %2, align 8
  %3 = load ptr, ptr %2, align 8
  %4 = getelementptr inbounds nuw %"class.llvm::SmallVectorBase", ptr %3, i32 0, i32 0
  %5 = load ptr, ptr %4, align 8
  ret ptr %5
}

; Function Attrs: mustprogress nounwind uwtable
define linkonce_odr hidden void @_ZN4llvm16AnalysisResolver18clearAnalysisImplsEv(ptr noundef nonnull align 8 dereferenceable(32) %0) #1 comdat align 2 {
  %2 = alloca ptr, align 8
  store ptr %0, ptr %2, align 8
  %3 = load ptr, ptr %2, align 8
  %4 = getelementptr inbounds nuw %"class.llvm::AnalysisResolver", ptr %3, i32 0, i32 0
  call void @_ZNSt6vectorISt4pairIPKvPN4llvm4PassEESaIS6_EE5clearEv(ptr noundef nonnull align 8 dereferenceable(24) %4) #2
  ret void
}

; Function Attrs: mustprogress nounwind uwtable
define linkonce_odr hidden noundef ptr @_ZNK4llvm4Pass11getResolverEv(ptr noundef nonnull align 8 dereferenceable(28) %0) #1 comdat align 2 {
  %2 = alloca ptr, align 8
  store ptr %0, ptr %2, align 8
  %3 = load ptr, ptr %2, align 8
  %4 = getelementptr inbounds nuw %"class.llvm::Pass", ptr %3, i32 0, i32 1
  %5 = load ptr, ptr %4, align 8
  ret ptr %5
}

; Function Attrs: mustprogress nounwind uwtable
define linkonce_odr hidden noundef ptr @_ZN4llvm13FPPassManager16getContainedPassEj(ptr noundef nonnull align 8 dereferenceable(412) %0, i32 noundef %1) #1 comdat align 2 {
  %3 = alloca ptr, align 8
  %4 = alloca i32, align 4
  %5 = alloca ptr, align 8
  store ptr %0, ptr %3, align 8
  store i32 %1, ptr %4, align 4
  %6 = load ptr, ptr %3, align 8
  %7 = getelementptr inbounds i8, ptr %6, i64 32
  %8 = getelementptr inbounds nuw %"class.llvm::PMDataManager", ptr %7, i32 0, i32 2
  %9 = load i32, ptr %4, align 4
  %10 = zext i32 %9 to i64
  %11 = call noundef nonnull align 8 dereferenceable(8) ptr @_ZN4llvm25SmallVectorTemplateCommonIPNS_4PassEvEixEm(ptr noundef nonnull align 8 dereferenceable(16) %8, i64 noundef %10)
  %12 = load ptr, ptr %11, align 8
  store ptr %12, ptr %5, align 8
  %13 = load ptr, ptr %5, align 8
  ret ptr %13
}

; Function Attrs: mustprogress nounwind uwtable
define linkonce_odr hidden noundef i32 @_ZNK4llvm13PMDataManager21getNumContainedPassesEv(ptr noundef nonnull align 8 dereferenceable(380) %0) #1 comdat align 2 {
  %2 = alloca ptr, align 8
  store ptr %0, ptr %2, align 8
  %3 = load ptr, ptr %2, align 8
  %4 = getelementptr inbounds nuw %"class.llvm::PMDataManager", ptr %3, i32 0, i32 2
  %5 = call noundef i64 @_ZNK4llvm15SmallVectorBaseIjE4sizeEv(ptr noundef nonnull align 8 dereferenceable(16) %4)
  %6 = trunc i64 %5 to i32
  ret i32 %6
}

; Function Attrs: mustprogress nounwind uwtable
define linkonce_odr hidden noundef nonnull align 8 dereferenceable(8) ptr @_ZN4llvm25SmallVectorTemplateCommonIPNS_13PMDataManagerEvEixEm(ptr noundef nonnull align 8 dereferenceable(16) %0, i64 noundef %1) #1 comdat align 2 {
  %3 = alloca ptr, align 8
  %4 = alloca i64, align 8
  store ptr %0, ptr %3, align 8
  store i64 %1, ptr %4, align 8
  %5 = load ptr, ptr %3, align 8
  %6 = call noundef ptr @_ZN4llvm25SmallVectorTemplateCommonIPNS_13PMDataManagerEvE5beginEv(ptr noundef nonnull align 8 dereferenceable(16) %5)
  %7 = load i64, ptr %4, align 8
  %8 = getelementptr inbounds ptr, ptr %6, i64 %7
  ret ptr %8
}

; Function Attrs: mustprogress nounwind uwtable
define dso_local void @_ZN4llvm13FPPassManager7cleanupEv(ptr noundef nonnull align 8 dereferenceable(412) %0) #1 align 2 {
  %2 = alloca ptr, align 8
  %3 = alloca i32, align 4
  %4 = alloca ptr, align 8
  %5 = alloca ptr, align 8
  store ptr %0, ptr %2, align 8
  %6 = load ptr, ptr %2, align 8
  store i32 0, ptr %3, align 4
  br label %7

7:                                                ; preds = %18, %1
  %8 = load i32, ptr %3, align 4
  %9 = getelementptr inbounds i8, ptr %6, i64 32
  %10 = call noundef i32 @_ZNK4llvm13PMDataManager21getNumContainedPassesEv(ptr noundef nonnull align 8 dereferenceable(380) %9)
  %11 = icmp ult i32 %8, %10
  br i1 %11, label %12, label %21

12:                                               ; preds = %7
  %13 = load i32, ptr %3, align 4
  %14 = call noundef ptr @_ZN4llvm13FPPassManager16getContainedPassEj(ptr noundef nonnull align 8 dereferenceable(412) %6, i32 noundef %13)
  store ptr %14, ptr %4, align 8
  %15 = load ptr, ptr %4, align 8
  %16 = call noundef ptr @_ZNK4llvm4Pass11getResolverEv(ptr noundef nonnull align 8 dereferenceable(28) %15)
  store ptr %16, ptr %5, align 8
  %17 = load ptr, ptr %5, align 8
  call void @_ZN4llvm16AnalysisResolver18clearAnalysisImplsEv(ptr noundef nonnull align 8 dereferenceable(32) %17)
  br label %18

18:                                               ; preds = %12
  %19 = load i32, ptr %3, align 4
  %20 = add i32 %19, 1
  store i32 %20, ptr %3, align 4
  br label %7, !llvm.loop !14

21:                                               ; preds = %7
  ret void
}

; Function Attrs: mustprogress nounwind uwtable
define linkonce_odr hidden noundef ptr @_ZN4llvm6legacy23FunctionPassManagerImpl19getContainedManagerEj(ptr noundef nonnull align 8 dereferenceable(1097) %0, i32 noundef %1) #1 comdat align 2 {
  %3 = alloca ptr, align 8
  %4 = alloca i32, align 4
  %5 = alloca ptr, align 8
  store ptr %0, ptr %3, align 8
  store i32 %1, ptr %4, align 4
  %6 = load ptr, ptr %3, align 8
  %7 = getelementptr inbounds i8, ptr %6, i64 416
  %8 = getelementptr inbounds nuw %"class.llvm::PMTopLevelManager", ptr %7, i32 0, i32 2
  %9 = load i32, ptr %4, align 4
  %10 = zext i32 %9 to i64
  %11 = call noundef nonnull align 8 dereferenceable(8) ptr @_ZN4llvm25SmallVectorTemplateCommonIPNS_13PMDataManagerEvEixEm(ptr noundef nonnull align 8 dereferenceable(16) %8, i64 noundef %10)
  %12 = load ptr, ptr %11, align 8
  %13 = icmp eq ptr %12, null
  br i1 %13, label %16, label %14

14:                                               ; preds = %2
  %15 = getelementptr inbounds i8, ptr %12, i64 -32
  br label %17

16:                                               ; preds = %2
  br label %17

17:                                               ; preds = %16, %14
  %18 = phi ptr [ %15, %14 ], [ null, %16 ]
  store ptr %18, ptr %5, align 8
  %19 = load ptr, ptr %5, align 8
  ret ptr %19
}

; Function Attrs: mustprogress nounwind uwtable
define linkonce_odr hidden noundef i32 @_ZNK4llvm17PMTopLevelManager23getNumContainedManagersEv(ptr noundef nonnull align 8 dereferenceable(680) %0) #1 comdat align 2 {
  %2 = alloca ptr, align 8
  store ptr %0, ptr %2, align 8
  %3 = load ptr, ptr %2, align 8
  %4 = getelementptr inbounds nuw %"class.llvm::PMTopLevelManager", ptr %3, i32 0, i32 2
  %5 = call noundef i64 @_ZNK4llvm15SmallVectorBaseIjE4sizeEv(ptr noundef nonnull align 8 dereferenceable(16) %4)
  %6 = trunc i64 %5 to i32
  ret i32 %6
}

; Function Attrs: mustprogress nounwind uwtable
define dso_local noundef zeroext i1 @_ZN4llvm6legacy23FunctionPassManagerImpl3runERNS_8FunctionE(ptr noundef nonnull align 8 dereferenceable(1097) %0, ptr noundef nonnull align 8 dereferenceable(136) %1) #1 align 2 {
  %3 = alloca ptr, align 8
  %4 = alloca ptr, align 8
  %5 = alloca i8, align 1
  %6 = alloca i32, align 4
  %7 = alloca i32, align 4
  store ptr %0, ptr %3, align 8
  store ptr %1, ptr %4, align 8
  %8 = load ptr, ptr %3, align 8
  store i8 0, ptr %5, align 1
  %9 = getelementptr inbounds i8, ptr %8, i64 416
  call void @_ZN4llvm17PMTopLevelManager25initializeAllAnalysisInfoEv(ptr noundef nonnull align 8 dereferenceable(680) %9)
  store i32 0, ptr %6, align 4
  br label %10

10:                                               ; preds = %29, %2
  %11 = load i32, ptr %6, align 4
  %12 = getelementptr inbounds i8, ptr %8, i64 416
  %13 = call noundef i32 @_ZNK4llvm17PMTopLevelManager23getNumContainedManagersEv(ptr noundef nonnull align 8 dereferenceable(680) %12)
  %14 = icmp ult i32 %11, %13
  br i1 %14, label %15, label %32

15:                                               ; preds = %10
  %16 = load i32, ptr %6, align 4
  %17 = call noundef ptr @_ZN4llvm6legacy23FunctionPassManagerImpl19getContainedManagerEj(ptr noundef nonnull align 8 dereferenceable(1097) %8, i32 noundef %16)
  %18 = load ptr, ptr %4, align 8
  %19 = call noundef zeroext i1 @_ZN4llvm13FPPassManager13runOnFunctionERNS_8FunctionE(ptr noundef nonnull align 8 dereferenceable(412) %17, ptr noundef nonnull align 8 dereferenceable(136) %18)
  %20 = zext i1 %19 to i32
  %21 = load i8, ptr %5, align 1
  %22 = trunc i8 %21 to i1
  %23 = zext i1 %22 to i32
  %24 = or i32 %23, %20
  %25 = icmp ne i32 %24, 0
  %26 = zext i1 %25 to i8
  store i8 %26, ptr %5, align 1
  %27 = load ptr, ptr %4, align 8
  %28 = call noundef nonnull align 8 dereferenceable(8) ptr @_ZNK4llvm8Function10getContextEv(ptr noundef nonnull align 8 dereferenceable(136) %27)
  call void @_ZN4llvm11LLVMContext5yieldEv(ptr noundef nonnull align 8 dereferenceable(8) %28)
  br label %29

29:                                               ; preds = %15
  %30 = load i32, ptr %6, align 4
  %31 = add i32 %30, 1
  store i32 %31, ptr %6, align 4
  br label %10, !llvm.loop !11

32:                                               ; preds = %10
  store i32 0, ptr %7, align 4
  br label %33

33:                                               ; preds = %41, %32
  %34 = load i32, ptr %7, align 4
  %35 = getelementptr inbounds i8, ptr %8, i64 416
  %36 = call noundef i32 @_ZNK4llvm17PMTopLevelManager23getNumContainedManagersEv(ptr noundef nonnull align 8 dereferenceable(680) %35)
  %37 = icmp ult i32 %34, %36
  br i1 %37, label %38, label %44

38:                                               ; preds = %33
  %39 = load i32, ptr %7, align 4
  %40 = call noundef ptr @_ZN4llvm6legacy23FunctionPassManagerImpl19getContainedManagerEj(ptr noundef nonnull align 8 dereferenceable(1097) %8, i32 noundef %39)
  call void @_ZN4llvm13FPPassManager7cleanupEv(ptr noundef nonnull align 8 dereferenceable(412) %40)
  br label %41

41:                                               ; preds = %38
  %42 = load i32, ptr %7, align 4
  %43 = add i32 %42, 1
  store i32 %43, ptr %7, align 4
  br label %33, !llvm.loop !12

44:                                               ; preds = %33
  %45 = getelementptr inbounds nuw %"class.llvm::legacy::FunctionPassManagerImpl", ptr %8, i32 0, i32 5
  store i8 1, ptr %45, align 8
  %46 = load i8, ptr %5, align 1
  %47 = trunc i8 %46 to i1
  ret i1 %47
}