; Function Attrs: mustprogress nounwind uwtable
define dso_local noundef zeroext i1 @_ZN4llvm6legacy23FunctionPassManagerImpl3runERNS_8FunctionE(ptr noundef nonnull align 8 dereferenceable(1097) %0, ptr noundef nonnull align 8 dereferenceable(136) %1) local_unnamed_addr #0 align 2 {
  %3 = getelementptr inbounds i8, ptr %0, i64 416
  tail call void @_ZN4llvm17PMTopLevelManager25initializeAllAnalysisInfoEv(ptr noundef nonnull align 8 dereferenceable(680) %3)
  %4 = getelementptr inbounds i8, ptr %0, i64 448
  %5 = tail call noundef i64 @_ZNK4llvm15SmallVectorBaseIjE4sizeEv(ptr noundef nonnull align 8 dereferenceable(16) %4) #27
  %6 = and i64 %5, 4294967295
  %.not = icmp eq i64 %6, 0
  br i1 %.not, label %.preheader, label %.lr.ph

.preheader:                                       ; preds = %.lr.ph, %2
  %.011.lcssa = phi i1 [ false, %2 ], [ %16, %.lr.ph ]
  %7 = tail call noundef i64 @_ZNK4llvm15SmallVectorBaseIjE4sizeEv(ptr noundef nonnull align 8 dereferenceable(16) %4) #27
  %8 = and i64 %7, 4294967295
  %.not17 = icmp eq i64 %8, 0
  br i1 %.not17, label %._crit_edge, label %.lr.ph16

.lr.ph:                                           ; preds = %2, %.lr.ph
  %indvars.iv = phi i64 [ %indvars.iv.next, %.lr.ph ], [ 0, %2 ]
  %.01112 = phi i1 [ %16, %.lr.ph ], [ false, %2 ]
  %9 = load ptr, ptr %4, align 8
  %10 = getelementptr inbounds ptr, ptr %9, i64 %indvars.iv
  %11 = load ptr, ptr %10, align 8
  %12 = icmp eq ptr %11, null
  %13 = getelementptr inbounds i8, ptr %11, i64 -32
  %14 = select i1 %12, ptr null, ptr %13
  %15 = tail call noundef zeroext i1 @_ZN4llvm13FPPassManager13runOnFunctionERNS_8FunctionE(ptr noundef nonnull align 8 dereferenceable(412) %14, ptr noundef nonnull align 8 dereferenceable(136) %1)
  %16 = or i1 %.01112, %15
  %17 = tail call noundef nonnull align 8 dereferenceable(8) ptr @_ZNK4llvm8Function10getContextEv(ptr noundef nonnull align 8 dereferenceable(136) %1) #27
  tail call void @_ZN4llvm11LLVMContext5yieldEv(ptr noundef nonnull align 8 dereferenceable(8) %17) #27
  %indvars.iv.next = add nuw nsw i64 %indvars.iv, 1
  %18 = tail call noundef i64 @_ZNK4llvm15SmallVectorBaseIjE4sizeEv(ptr noundef nonnull align 8 dereferenceable(16) %4) #27
  %19 = and i64 %18, 4294967295
  %20 = icmp ult i64 %indvars.iv.next, %19
  br i1 %20, label %.lr.ph, label %.preheader, !llvm.loop !26

.lr.ph16:                                         ; preds = %.preheader, %_ZN4llvm13FPPassManager7cleanupEv.exit
  %indvars.iv18 = phi i64 [ %indvars.iv.next19, %_ZN4llvm13FPPassManager7cleanupEv.exit ], [ 0, %.preheader ]
  %21 = load ptr, ptr %4, align 8
  %22 = getelementptr inbounds ptr, ptr %21, i64 %indvars.iv18
  %23 = load ptr, ptr %22, align 8
  %24 = icmp eq ptr %23, null
  %25 = getelementptr inbounds i8, ptr %23, i64 -32
  %26 = select i1 %24, ptr null, ptr %25
  %27 = getelementptr inbounds i8, ptr %26, i64 48
  %28 = tail call noundef i64 @_ZNK4llvm15SmallVectorBaseIjE4sizeEv(ptr noundef nonnull align 8 dereferenceable(16) %27) #27
  %29 = and i64 %28, 4294967295
  %.not.i = icmp eq i64 %29, 0
  br i1 %.not.i, label %_ZN4llvm13FPPassManager7cleanupEv.exit, label %.lr.ph.i

.lr.ph.i:                                         ; preds = %.lr.ph16, %_ZN4llvm16AnalysisResolver18clearAnalysisImplsEv.exit.i
  %indvars.iv.i = phi i64 [ %indvars.iv.next.i, %_ZN4llvm16AnalysisResolver18clearAnalysisImplsEv.exit.i ], [ 0, %.lr.ph16 ]
  %30 = load ptr, ptr %27, align 8
  %31 = getelementptr inbounds ptr, ptr %30, i64 %indvars.iv.i
  %32 = load ptr, ptr %31, align 8
  %33 = getelementptr inbounds nuw i8, ptr %32, i64 8
  %34 = load ptr, ptr %33, align 8
  %35 = load ptr, ptr %34, align 8
  %36 = getelementptr inbounds nuw i8, ptr %34, i64 8
  %37 = load ptr, ptr %36, align 8
  %.not.i.i.i.i = icmp eq ptr %37, %35
  br i1 %.not.i.i.i.i, label %_ZN4llvm16AnalysisResolver18clearAnalysisImplsEv.exit.i, label %38

38:                                               ; preds = %.lr.ph.i
  store ptr %35, ptr %36, align 8
  br label %_ZN4llvm16AnalysisResolver18clearAnalysisImplsEv.exit.i

_ZN4llvm16AnalysisResolver18clearAnalysisImplsEv.exit.i: ; preds = %38, %.lr.ph.i
  %indvars.iv.next.i = add nuw nsw i64 %indvars.iv.i, 1
  %39 = tail call noundef i64 @_ZNK4llvm15SmallVectorBaseIjE4sizeEv(ptr noundef nonnull align 8 dereferenceable(16) %27) #27
  %40 = and i64 %39, 4294967295
  %41 = icmp ult i64 %indvars.iv.next.i, %40
  br i1 %41, label %.lr.ph.i, label %_ZN4llvm13FPPassManager7cleanupEv.exit, !llvm.loop !27

_ZN4llvm13FPPassManager7cleanupEv.exit:           ; preds = %_ZN4llvm16AnalysisResolver18clearAnalysisImplsEv.exit.i, %.lr.ph16
  %indvars.iv.next19 = add nuw nsw i64 %indvars.iv18, 1
  %42 = tail call noundef i64 @_ZNK4llvm15SmallVectorBaseIjE4sizeEv(ptr noundef nonnull align 8 dereferenceable(16) %4) #27
  %43 = and i64 %42, 4294967295
  %44 = icmp ult i64 %indvars.iv.next19, %43
  br i1 %44, label %.lr.ph16, label %._crit_edge, !llvm.loop !28

._crit_edge:                                      ; preds = %_ZN4llvm13FPPassManager7cleanupEv.exit, %.preheader
  %45 = getelementptr inbounds nuw i8, ptr %0, i64 1096
  store i8 1, ptr %45, align 8
  ret i1 %.011.lcssa
}